; Function Attrs: nounwind uwtable
define dso_local range(i64 -64, 1) i64 @ZSTD_freeCCtx(ptr noundef %0) local_unnamed_addr #1 {
  %2 = icmp eq ptr %0, null
  br i1 %2, label %ZSTD_customFree.exit, label %3

3:                                                ; preds = %1
  %4 = getelementptr inbounds nuw i8, ptr %0, i64 880
  %5 = load i64, ptr %4, align 8
  %.not = icmp eq i64 %5, 0
  br i1 %.not, label %6, label %ZSTD_customFree.exit

6:                                                ; preds = %3
  %7 = getelementptr inbounds nuw i8, ptr %0, i64 656
  %8 = load ptr, ptr %7, align 8
  %.not.i = icmp ugt ptr %8, %0
  br i1 %.not.i, label %ZSTD_cwksp_owns_buffer.exit, label %9

9:                                                ; preds = %6
  %10 = getelementptr inbounds nuw i8, ptr %0, i64 664
  %11 = load ptr, ptr %10, align 8
  %12 = icmp uge ptr %0, %11
  br label %ZSTD_cwksp_owns_buffer.exit

ZSTD_cwksp_owns_buffer.exit:                      ; preds = %6, %9
  %.not9 = phi i1 [ true, %6 ], [ %12, %9 ]
  tail call fastcc void @ZSTD_clearAllDicts(ptr noundef nonnull %0)
  %13 = getelementptr i8, ptr %0, i64 856
  %.val.i = load ptr, ptr %13, align 8
  %14 = getelementptr i8, ptr %0, i64 864
  %.val3.i = load ptr, ptr %14, align 8
  %15 = load ptr, ptr %7, align 8
  tail call void @llvm.memset.p0.i64(ptr noundef nonnull align 8 dereferenceable(72) %7, i8 0, i64 72, i1 false)
  %.not.i.i.i = icmp eq ptr %15, null
  br i1 %.not.i.i.i, label %ZSTD_freeCCtxContent.exit, label %16

16:                                               ; preds = %ZSTD_cwksp_owns_buffer.exit
  %.not4.i.i.i = icmp eq ptr %.val.i, null
  br i1 %.not4.i.i.i, label %18, label %17

17:                                               ; preds = %16
  tail call void %.val.i(ptr noundef %.val3.i, ptr noundef nonnull %15) #27
  br label %ZSTD_freeCCtxContent.exit

18:                                               ; preds = %16
  tail call void @free(ptr noundef nonnull %15) #27
  br label %ZSTD_freeCCtxContent.exit

ZSTD_freeCCtxContent.exit:                        ; preds = %ZSTD_cwksp_owns_buffer.exit, %17, %18
  br i1 %.not9, label %19, label %ZSTD_customFree.exit

19:                                               ; preds = %ZSTD_freeCCtxContent.exit
  %.val = load ptr, ptr %13, align 8
  %.not4.i = icmp eq ptr %.val, null
  br i1 %.not4.i, label %21, label %20

20:                                               ; preds = %19
  %.val10 = load ptr, ptr %14, align 8
  tail call void %.val(ptr noundef %.val10, ptr noundef nonnull %0) #27
  br label %ZSTD_customFree.exit

21:                                               ; preds = %19
  tail call void @free(ptr noundef nonnull %0) #27
  br label %ZSTD_customFree.exit

ZSTD_customFree.exit:                             ; preds = %21, %20, %ZSTD_freeCCtxContent.exit, %3, %1
  %.0 = phi i64 [ 0, %1 ], [ -64, %3 ], [ 0, %ZSTD_freeCCtxContent.exit ], [ 0, %20 ], [ 0, %21 ]
  ret i64 %.0
}